target datalayout = "e-m:e-p270:32:32-p271:32:32-p272:64:64-i64:64-i128:128-f80:128-n8:16:32:64-S128"
target triple = "x86_64-pc-linux-gnu"

%struct.sockaddr = type { i16, [14 x i8] }

@.str.34 = private unnamed_addr constant [36 x i8] c"setsockopt(IPV4/IPV6 MULTICAST TTL)\00", align 1

; Function Attrs: nounwind uwtable
define internal i32 @udp_set_multicast_ttl(i32 noundef %0, i32 noundef %1, ptr noundef %2, ptr noundef %3) #0 {
  %5 = alloca i32, align 4
  %6 = alloca i32, align 4
  %7 = alloca i32, align 4
  %8 = alloca ptr, align 8
  %9 = alloca ptr, align 8
  %10 = alloca i32, align 4
  %11 = alloca i32, align 4
  %12 = alloca i32, align 4
  %13 = alloca i8, align 1
  store i32 %0, ptr %6, align 4, !tbaa !20
  store i32 %1, ptr %7, align 4, !tbaa !20
  store ptr %2, ptr %8, align 8, !tbaa !81
  store ptr %3, ptr %9, align 8, !tbaa !82
  call void @llvm.lifetime.start.p0(i64 4, ptr %10) #9
  call void @llvm.lifetime.start.p0(i64 4, ptr %11) #9
  %14 = load ptr, ptr %8, align 8, !tbaa !81
  %15 = getelementptr inbounds nuw %struct.sockaddr, ptr %14, i32 0, i32 0
  %16 = load i16, ptr %15, align 2, !tbaa !75
  %17 = zext i16 %16 to i32
  switch i32 %17, label %20 [
    i32 2, label %18
    i32 10, label %19
  ]

18:                                               ; preds = %4
  store i32 0, ptr %10, align 4, !tbaa !20
  store i32 33, ptr %11, align 4, !tbaa !20
  br label %21

19:                                               ; preds = %4
  store i32 41, ptr %10, align 4, !tbaa !20
  store i32 18, ptr %11, align 4, !tbaa !20
  br label %21

20:                                               ; preds = %4
  store i32 0, ptr %5, align 4
  store i32 1, ptr %12, align 4
  br label %46

21:                                               ; preds = %19, %18
  %22 = load i32, ptr %6, align 4, !tbaa !20
  %23 = load i32, ptr %10, align 4, !tbaa !20
  %24 = load i32, ptr %11, align 4, !tbaa !20
  %25 = call i32 @setsockopt(i32 noundef %22, i32 noundef %23, i32 noundef %24, ptr noundef %7, i32 noundef 4) #9
  %26 = icmp slt i32 %25, 0
  br i1 %26, label %27, label %45

27:                                               ; preds = %21
  call void @llvm.lifetime.start.p0(i64 1, ptr %13) #9
  %28 = load i32, ptr %7, align 4, !tbaa !20
  %29 = trunc i32 %28 to i8
  store i8 %29, ptr %13, align 1, !tbaa !56
  %30 = load ptr, ptr %9, align 8, !tbaa !82
  call void @ff_log_net_error(ptr noundef %30, i32 noundef 48, ptr noundef @.str.34)
  %31 = load i32, ptr %6, align 4, !tbaa !20
  %32 = load i32, ptr %10, align 4, !tbaa !20
  %33 = load i32, ptr %11, align 4, !tbaa !20
  %34 = call i32 @setsockopt(i32 noundef %31, i32 noundef %32, i32 noundef %33, ptr noundef %13, i32 noundef 1) #9
  %35 = icmp slt i32 %34, 0
  br i1 %35, label %36, label %41

36:                                               ; preds = %27
  %37 = load ptr, ptr %9, align 8, !tbaa !82
  call void @ff_log_net_error(ptr noundef %37, i32 noundef 16, ptr noundef @.str.34)
  %38 = call ptr @__errno_location() #11
  %39 = load i32, ptr %38, align 4, !tbaa !20
  %40 = sub nsw i32 0, %39
  store i32 %40, ptr %5, align 4
  store i32 1, ptr %12, align 4
  br label %42

41:                                               ; preds = %27
  store i32 0, ptr %12, align 4
  br label %42

42:                                               ; preds = %41, %36
  call void @llvm.lifetime.end.p0(i64 1, ptr %13) #9
  %43 = load i32, ptr %12, align 4
  switch i32 %43, label %46 [
    i32 0, label %44
  ]

44:                                               ; preds = %42
  br label %45

45:                                               ; preds = %44, %21
  store i32 0, ptr %5, align 4
  store i32 1, ptr %12, align 4
  br label %46

46:                                               ; preds = %45, %42, %20
  call void @llvm.lifetime.end.p0(i64 4, ptr %11) #9
  call void @llvm.lifetime.end.p0(i64 4, ptr %10) #9
  %47 = load i32, ptr %5, align 4
  ret i32 %47
}