; Function Attrs: nounwind uwtable
define internal fastcc range(i32 -2147483647, -2147483648) i32 @udp_set_multicast_ttl(i32 noundef range(i32 0, -2147483648) %0, i32 noundef %1, i16 %.0.val, ptr noundef %2) unnamed_addr #0 {
  %4 = alloca i32, align 4
  %5 = alloca i8, align 1
  store i32 %1, ptr %4, align 4, !tbaa !15
  switch i16 %.0.val, label %19 [
    i16 2, label %7
    i16 10, label %6
  ]

6:                                                ; preds = %3
  br label %7

7:                                                ; preds = %3, %6
  %.011 = phi i32 [ 41, %6 ], [ 0, %3 ]
  %.010 = phi i32 [ 18, %6 ], [ 33, %3 ]
  %8 = call i32 @setsockopt(i32 noundef %0, i32 noundef %.011, i32 noundef %.010, ptr noundef nonnull %4, i32 noundef 4) #11
  %9 = icmp slt i32 %8, 0
  br i1 %9, label %10, label %19

10:                                               ; preds = %7
  call void @llvm.lifetime.start.p0(i64 1, ptr nonnull %5) #11
  %11 = load i32, ptr %4, align 4, !tbaa !15
  %12 = trunc i32 %11 to i8
  store i8 %12, ptr %5, align 1, !tbaa !47
  call void @ff_log_net_error(ptr noundef %2, i32 noundef 48, ptr noundef nonnull @.str.34) #11
  %13 = call i32 @setsockopt(i32 noundef %0, i32 noundef %.011, i32 noundef %.010, ptr noundef nonnull %5, i32 noundef 1) #11
  %14 = icmp sgt i32 %13, -1
  br i1 %14, label %.sink.split, label %15

15:                                               ; preds = %10
  call void @ff_log_net_error(ptr noundef %2, i32 noundef 16, ptr noundef nonnull @.str.34) #11
  %16 = tail call ptr @__errno_location() #13
  %17 = load i32, ptr %16, align 4, !tbaa !15
  %18 = sub nsw i32 0, %17
  br label %.sink.split

.sink.split:                                      ; preds = %10, %15
  %.012.ph = phi i32 [ %18, %15 ], [ 0, %10 ]
  call void @llvm.lifetime.end.p0(i64 1, ptr nonnull %5) #11
  br label %19

19:                                               ; preds = %.sink.split, %7, %3
  %.012 = phi i32 [ 0, %3 ], [ 0, %7 ], [ %.012.ph, %.sink.split ]
  ret i32 %.012
}